
led.elf:     file format elf32-littlearm

Disassembly of section .text:

00000000 <_start>:
   0:	e3a0da01 	mov	sp, #4096	; 0x1000

00000004 <halt>:
   4:	e3a00004 	mov	r0, #4	; 0x4
   8:	eb000013 	bl	5c <led_on>
   c:	e59f0014 	ldr	r0, [pc, #20]	; 28 <.text+0x28>
  10:	eb000005 	bl	2c <delay>
  14:	e3a00005 	mov	r0, #5	; 0x5
  18:	eb00000f 	bl	5c <led_on>
  1c:	e59f0004 	ldr	r0, [pc, #4]	; 28 <.text+0x28>
  20:	eb000001 	bl	2c <delay>
  24:	eafffff6 	b	4 <halt>
  28:	000186a0 	andeq	r8, r1, r0, lsr #13

0000002c <delay>:
  2c:	e1a0c00d 	mov	ip, sp
  30:	e92dd800 	stmdb	sp!, {fp, ip, lr, pc}
  34:	e24cb004 	sub	fp, ip, #4	; 0x4
  38:	e24dd004 	sub	sp, sp, #4	; 0x4
  3c:	e50b0010 	str	r0, [fp, #-16]
  40:	e51b3010 	ldr	r3, [fp, #-16]
  44:	e2433001 	sub	r3, r3, #1	; 0x1
  48:	e50b3010 	str	r3, [fp, #-16]
  4c:	e3730001 	cmn	r3, #1	; 0x1
  50:	0a000000 	beq	58 <delay+0x2c>
  54:	eafffff9 	b	40 <delay+0x14>
  58:	e89da808 	ldmia	sp, {r3, fp, sp, pc}

0000005c <led_on>:
  5c:	e1a0c00d 	mov	ip, sp
  60:	e92dd800 	stmdb	sp!, {fp, ip, lr, pc}
  64:	e24cb004 	sub	fp, ip, #4	; 0x4
  68:	e24dd004 	sub	sp, sp, #4	; 0x4
  6c:	e50b0010 	str	r0, [fp, #-16]
  70:	e3a02456 	mov	r2, #1442840576	; 0x56000000
  74:	e2822050 	add	r2, r2, #80	; 0x50
  78:	e51b3010 	ldr	r3, [fp, #-16]
  7c:	e1a01083 	mov	r1, r3, lsl #1
  80:	e3a03001 	mov	r3, #1	; 0x1
  84:	e1a03113 	mov	r3, r3, lsl r1
  88:	e5823000 	str	r3, [r2]
  8c:	e3a03456 	mov	r3, #1442840576	; 0x56000000
  90:	e2833054 	add	r3, r3, #84	; 0x54
  94:	e3a02000 	mov	r2, #0	; 0x0
  98:	e5832000 	str	r2, [r3]
  9c:	e1a00003 	mov	r0, r3
  a0:	e89da808 	ldmia	sp, {r3, fp, sp, pc}